; Function Attrs: mustprogress noreturn uwtable
define void @_ZN2cv7addTextERKNS_3MatERKNSt7__cxx1112basic_stringIcSt11char_traitsIcESaIcEEENS_6Point_IiEESA_iNS_7Scalar_IdEEiii(ptr nocapture noundef nonnull readnone align 8 dereferenceable(96) %0, ptr nocapture noundef nonnull readnone align 8 dereferenceable(32) %1, i64 %2, ptr nocapture noundef nonnull readnone align 8 dereferenceable(32) %3, i32 noundef %4, ptr nocapture noundef readnone %5, i32 noundef %6, i32 noundef %7, i32 noundef %8) local_unnamed_addr #9 personality ptr @__gxx_personality_v0 {
  %10 = alloca %"class.std::__cxx11::basic_string", align 8
  %11 = alloca %"class.std::allocator", align 1
  call void @_ZNSaIcEC1Ev(ptr noundef nonnull align 1 dereferenceable(1) %11) #20
  invoke void @_ZNSt7__cxx1112basic_stringIcSt11char_traitsIcESaIcEEC1EPKcRKS3_(ptr noundef nonnull align 8 dereferenceable(32) %10, ptr noundef nonnull @.str.46, ptr noundef nonnull align 1 dereferenceable(1) %11)
          to label %12 unwind label %14

12:                                               ; preds = %9
  invoke void @_ZN2cv5errorEiRKNSt7__cxx1112basic_stringIcSt11char_traitsIcESaIcEEEPKcS9_i(i32 noundef -213, ptr noundef nonnull align 8 dereferenceable(32) %10, ptr noundef nonnull @__func__._ZN2cv7addTextERKNS_3MatERKNSt7__cxx1112basic_stringIcSt11char_traitsIcESaIcEEENS_6Point_IiEERKNS_6QtFontE, ptr noundef nonnull @.str.1, i32 noundef 1218) #22
          to label %13 unwind label %16

13:                                               ; preds = %12
  unreachable

14:                                               ; preds = %9
  %15 = landingpad { ptr, i32 }
          cleanup
  br label %18

16:                                               ; preds = %12
  %17 = landingpad { ptr, i32 }
          cleanup
  call void @_ZNSt7__cxx1112basic_stringIcSt11char_traitsIcESaIcEED1Ev(ptr noundef nonnull align 8 dereferenceable(32) %10) #20
  br label %18

18:                                               ; preds = %16, %14
  %.pn = phi { ptr, i32 } [ %17, %16 ], [ %15, %14 ]
  call void @_ZNSaIcED1Ev(ptr noundef nonnull align 1 dereferenceable(1) %11) #20
  resume { ptr, i32 } %.pn
}